; Function Attrs: nounwind uwtable
define noalias nonnull ptr @l___private_Lean_Elab_Extra_0__Lean_Elab_Term_Op_toTree_processBinOp___lambda__1(ptr noundef %0, i8 noundef zeroext %1, ptr noundef %2, ptr noundef %3, ptr noundef %4, ptr noundef readnone captures(none) %5, ptr noundef readnone captures(none) %6, ptr noundef readnone captures(none) %7, ptr noundef readnone captures(none) %8, ptr noundef readnone captures(none) %9, ptr noundef readnone captures(none) %10, ptr noundef %11) local_unnamed_addr #0 {
  tail call void @lean_inc_heartbeat() #7
  %13 = tail call noalias ptr @mi_malloc_small(i64 noundef 48) #7
  %14 = icmp eq ptr %13, null
  br i1 %14, label %15, label %lean_alloc_ctor.exit

15:                                               ; preds = %12
  tail call void @lean_internal_panic_out_of_memory() #8
  unreachable

lean_alloc_ctor.exit:                             ; preds = %12
  %16 = getelementptr inbounds nuw i8, ptr %13, i64 4
  %17 = getelementptr inbounds nuw i8, ptr %13, i64 40
  store i64 0, ptr %17, align 8, !tbaa !12
  store i32 1, ptr %13, align 4, !tbaa !8
  store i32 17039408, ptr %16, align 4
  %18 = getelementptr inbounds nuw i8, ptr %13, i64 8
  store ptr %0, ptr %18, align 8, !tbaa !4
  %19 = getelementptr inbounds nuw i8, ptr %13, i64 16
  store ptr %2, ptr %19, align 8, !tbaa !4
  %20 = getelementptr inbounds nuw i8, ptr %13, i64 24
  store ptr %3, ptr %20, align 8, !tbaa !4
  %21 = getelementptr inbounds nuw i8, ptr %13, i64 32
  store ptr %4, ptr %21, align 8, !tbaa !4
  store i8 %1, ptr %17, align 1, !tbaa !17
  tail call void @lean_inc_heartbeat() #7
  %22 = tail call noalias ptr @mi_malloc_small(i64 noundef 24) #7
  %23 = icmp eq ptr %22, null
  br i1 %23, label %24, label %lean_alloc_ctor.exit14

24:                                               ; preds = %lean_alloc_ctor.exit
  tail call void @lean_internal_panic_out_of_memory() #8
  unreachable

lean_alloc_ctor.exit14:                           ; preds = %lean_alloc_ctor.exit
  %25 = getelementptr inbounds nuw i8, ptr %22, i64 4
  store i32 1, ptr %22, align 4, !tbaa !8
  store i32 131096, ptr %25, align 4
  %26 = getelementptr inbounds nuw i8, ptr %22, i64 8
  store ptr %13, ptr %26, align 8, !tbaa !4
  %27 = getelementptr inbounds nuw i8, ptr %22, i64 16
  store ptr %11, ptr %27, align 8, !tbaa !4
  ret ptr %22
}